target datalayout = "e-m:e-p270:32:32-p271:32:32-p272:64:64-i64:64-i128:128-f80:128-n8:16:32:64-S128"
target triple = "x86_64-pc-linux-gnu"

@.str = private unnamed_addr constant [9 x i8] c"xsalsa20\00", align 1

; Function Attrs: nounwind ssp uwtable
define dso_local i64 @crypto_stream_keybytes() #0 {
  ret i64 32
}

; Function Attrs: nounwind ssp uwtable
define dso_local i64 @crypto_stream_noncebytes() #0 {
  ret i64 24
}

; Function Attrs: nounwind ssp uwtable
define dso_local i64 @crypto_stream_messagebytes_max() #0 {
  ret i64 -1
}

; Function Attrs: nounwind ssp uwtable
define dso_local ptr @crypto_stream_primitive() #0 {
  ret ptr @.str
}

; Function Attrs: nounwind ssp uwtable
define dso_local i32 @crypto_stream(ptr noundef nonnull %0, i64 noundef %1, ptr noundef nonnull %2, ptr noundef nonnull %3) #0 {
  %5 = alloca ptr, align 8
  %6 = alloca i64, align 8
  %7 = alloca ptr, align 8
  %8 = alloca ptr, align 8
  store ptr %0, ptr %5, align 8
  store i64 %1, ptr %6, align 8
  store ptr %2, ptr %7, align 8
  store ptr %3, ptr %8, align 8
  %9 = load ptr, ptr %5, align 8
  %10 = load i64, ptr %6, align 8
  %11 = load ptr, ptr %7, align 8
  %12 = load ptr, ptr %8, align 8
  %13 = call i32 @crypto_stream_xsalsa20(ptr noundef %9, i64 noundef %10, ptr noundef %11, ptr noundef %12)
  ret i32 %13
}

declare i32 @crypto_stream_xsalsa20(ptr noundef, i64 noundef, ptr noundef, ptr noundef) #1

; Function Attrs: nounwind ssp uwtable
define dso_local i32 @crypto_stream_xor(ptr noundef nonnull %0, ptr noundef nonnull %1, i64 noundef %2, ptr noundef nonnull %3, ptr noundef nonnull %4) #0 {
  %6 = alloca ptr, align 8
  %7 = alloca ptr, align 8
  %8 = alloca i64, align 8
  %9 = alloca ptr, align 8
  %10 = alloca ptr, align 8
  store ptr %0, ptr %6, align 8
  store ptr %1, ptr %7, align 8
  store i64 %2, ptr %8, align 8
  store ptr %3, ptr %9, align 8
  store ptr %4, ptr %10, align 8
  %11 = load ptr, ptr %6, align 8
  %12 = load ptr, ptr %7, align 8
  %13 = load i64, ptr %8, align 8
  %14 = load ptr, ptr %9, align 8
  %15 = load ptr, ptr %10, align 8
  %16 = call i32 @crypto_stream_xsalsa20_xor(ptr noundef %11, ptr noundef %12, i64 noundef %13, ptr noundef %14, ptr noundef %15)
  ret i32 %16
}

declare i32 @crypto_stream_xsalsa20_xor(ptr noundef, ptr noundef, i64 noundef, ptr noundef, ptr noundef) #1

; Function Attrs: nounwind ssp uwtable
define dso_local void @crypto_stream_keygen(ptr noundef nonnull %0) #0 {
  %2 = alloca ptr, align 8
  store ptr %0, ptr %2, align 8
  %3 = load ptr, ptr %2, align 8
  call void @randombytes_buf(ptr noundef %3, i64 noundef 32)
  ret void
}

declare void @randombytes_buf(ptr noundef, i64 noundef) #1


!llvm.module.flags = !{!0, !1, !2, !3}

!0 = !{i32 1, !"wchar_size", i32 4}
!1 = !{i32 8, !"PIC Level", i32 2}
!2 = !{i32 7, !"PIE Level", i32 2}
!3 = !{i32 7, !"uwtable", i32 2}
